(dp0
S'total_time'
p1
I800000
sS'grps'
p2
(lp3
(lp4
I1
aI2
aI3
aI4
aa(lp5
I5
aI6
aI7
aI8
aI9
aI10
aI11
aI12
aI13
aI14
aasS'total_time_test'
p6
I80000
sS'strs'
p7
(lp8
S'apic'
p9
aS'dend'
p10
asS'path'
p11
S'/home/bmarchan/L5_updated/'
p12
sS'Ng'
p13
I2
sS'Nneur'
p14
(lp15
(lp16
I0
aI1
aI2
aa(lp17
I2
aI3
aI4
aI5
aI6
aI7
aI8
aI9
aI10
aI11
aI12
aI13
aI14
aasS'N'
p18
I14
s.