(dp0
S'total_time'
p1
F960000.0
sS'grps'
p2
(lp3
(lp4
I1
aI2
aI3
aI4
aI5
aI6
aI7
aI8
aI9
aI10
aasS'total_time_test'
p5
F96000.0
sS'strs'
p6
(lp7
S'dend'
p8
asS'path'
p9
S'/home/bmarchan/L5_updated_2/'
p10
sS'Ng'
p11
I1
sS'Nneur'
p12
(lp13
(lp14
I0
aI1
aI2
aI3
aI4
aI5
aI6
aI7
aI8
aI9
aI10
aasS'N'
p15
I10
s.